(lp0
(lp1
S'Work on Rift on the train.'
p2
a(lp3
aa(lp4
S'Work on Mentat at home.'
p5
a(lp6
aa(lp7
S'Work on Mentat whenever possible.'
p8
a(lp9
aa(lp10
S'Set aside special positive time for wife.'
p11
a(lp12
aa(lp13
S'Set aside special positive time for kids.'
p14
a(lp15
aa(lp16
S'Ensure job security.'
p17
a(lp18
aa(lp19
S'Get chronic pain condition under control.'
p20
a(lp21
aa.