(lp0
(lp1
S'1'
p2
a(lp3
I5
aI2
aa(lp4
aa(lp5
S'2'
p6
a(lp7
a(lp8
aa(lp9
S'3'
p10
a(lp11
I1
aI5
aa(lp12
aa(lp13
S'4'
p14
a(lp15
a(lp16
I0
aaa(lp17
S'5'
p18
a(lp19
a(lp20
aa(lp21
S'6'
p22
a(lp23
I3
aI4
aa(lp24
aa.