(lp0
(lp1
S'Raise the sanity waterline.'
p2
a(lp3
I2
aI4
aI5
aI7
aa(lp4
aa(lp5
S'Colonize Marz.'
p6
a(lp7
I5
aI9
aI10
aa(lp8
aa(lp9
S'Raise good happy children.'
p10
a(lp11
I3
aI4
aI7
aa(lp12
I4
aaa(lp13
S'Have a good happy marriage.'
p14
a(lp15
I2
aI6
aI9
aI10
aa(lp16
I3
aaa(lp17
S'Become moderately known for contributions to my community.'
p18
a(lp19
I8
aI9
aI10
aI7
aI5
aI2
aI0
aa(lp20
I6
aI1
aI2
aI0
aaa(lp21
S'Build an empire out of Mentat.'
p22
a(lp23
I6
aI7
aa(lp24
I1
aI2
aI5
aI6
aaa(lp25
S'Make money off of Mentat.'
p26
a(lp27
I7
aa(lp28
I1
aI2
aI5
aI6
aaa(lp29
S'Help people with Mentat.'
p30
a(lp31
a(lp32
aa(lp33
S'Finish Rift.'
p34
a(lp35
I10
aa(lp36
I0
aI5
aI6
aaa(lp37
S'Publish Rift.'
p38
a(lp39
I8
aa(lp40
I0
aaa(lp41
S'Avoid catastrophe.'
p42
a(lp43
a(lp44
I5
aI6
aaa.